target datalayout = "e-m:e-p270:32:32-p271:32:32-p272:64:64-i64:64-i128:128-f80:128-n8:16:32:64-S128"
target triple = "x86_64-pc-linux-gnu"

%struct._nlm_msg_res_unmatched_data = type { i32, %struct.nstime_t, i32, ptr }
%struct.nstime_t = type { i64, i32 }
%struct._packet_info = type { ptr, ptr, i32, i32, %struct.nstime_t, %struct.nstime_t, %struct.nstime_t, i8, ptr, ptr, ptr, ptr, %struct._address, %struct._address, %struct._address, %struct._address, %struct._address, %struct._address, i32, ptr, i8, [3 x i8], %struct.anon, i32, i32, i32, i32, ptr, i8, ptr, ptr, i16, i16, i32, i32, i16, i32, i32, ptr, ptr, ptr, i8, i8, i16, i16, i16, i32, i16, i16, ptr, ptr, ptr, ptr, ptr, i32, i32 }
%struct._address = type { i32, i32, ptr, ptr }
%struct.anon = type { i8, [3 x i8] }

@nlm_msg_res_unmatched = internal global ptr null, align 8

; Function Attrs: null_pointer_is_valid sspstrong uwtable
define internal void @nlm_register_unmatched_msg(ptr noundef %0, ptr noundef %1, i32 noundef %2) #0 {
  %4 = alloca ptr, align 8
  %5 = alloca ptr, align 8
  %6 = alloca i32, align 4
  %7 = alloca ptr, align 8
  %8 = alloca ptr, align 8
  store ptr %0, ptr %4, align 8
  store ptr %1, ptr %5, align 8
  store i32 %2, ptr %6, align 4
  call void @llvm.lifetime.start.p0(i64 8, ptr %7) #8
  call void @llvm.lifetime.start.p0(i64 8, ptr %8) #8
  %9 = call ptr @wmem_file_scope()
  %10 = call noalias ptr @wmem_alloc(ptr noundef %9, i64 noundef 40) #10
  store ptr %10, ptr %7, align 8
  %11 = load ptr, ptr %4, align 8
  %12 = getelementptr inbounds nuw %struct._packet_info, ptr %11, i32 0, i32 3
  %13 = load i32, ptr %12, align 4
  %14 = load ptr, ptr %7, align 8
  %15 = getelementptr inbounds nuw %struct._nlm_msg_res_unmatched_data, ptr %14, i32 0, i32 0
  store i32 %13, ptr %15, align 8
  %16 = load ptr, ptr %7, align 8
  %17 = getelementptr inbounds nuw %struct._nlm_msg_res_unmatched_data, ptr %16, i32 0, i32 1
  %18 = load ptr, ptr %4, align 8
  %19 = getelementptr inbounds nuw %struct._packet_info, ptr %18, i32 0, i32 4
  call void @llvm.memcpy.p0.p0.i64(ptr align 8 %17, ptr align 8 %19, i64 16, i1 false)
  %20 = load ptr, ptr %5, align 8
  %21 = load i32, ptr %6, align 4
  %22 = call i32 @tvb_get_ntohl(ptr noundef %20, i32 noundef %21)
  %23 = load ptr, ptr %7, align 8
  %24 = getelementptr inbounds nuw %struct._nlm_msg_res_unmatched_data, ptr %23, i32 0, i32 2
  store i32 %22, ptr %24, align 8
  %25 = call ptr @wmem_file_scope()
  %26 = load ptr, ptr %5, align 8
  %27 = load i32, ptr %6, align 4
  %28 = add i32 %27, 4
  %29 = load ptr, ptr %7, align 8
  %30 = getelementptr inbounds nuw %struct._nlm_msg_res_unmatched_data, ptr %29, i32 0, i32 2
  %31 = load i32, ptr %30, align 8
  %32 = sext i32 %31 to i64
  %33 = call ptr @tvb_memdup(ptr noundef %25, ptr noundef %26, i32 noundef %28, i64 noundef %32)
  %34 = load ptr, ptr %7, align 8
  %35 = getelementptr inbounds nuw %struct._nlm_msg_res_unmatched_data, ptr %34, i32 0, i32 3
  store ptr %33, ptr %35, align 8
  %36 = load ptr, ptr @nlm_msg_res_unmatched, align 8
  %37 = load ptr, ptr %7, align 8
  %38 = call ptr @wmem_map_lookup(ptr noundef %36, ptr noundef %37)
  store ptr %38, ptr %8, align 8
  %39 = load ptr, ptr %8, align 8
  %40 = icmp ne ptr %39, null
  br i1 %40, label %41, label %45

41:                                               ; preds = %3
  %42 = load ptr, ptr @nlm_msg_res_unmatched, align 8
  %43 = load ptr, ptr %8, align 8
  %44 = call ptr @wmem_map_remove(ptr noundef %42, ptr noundef %43)
  br label %45

45:                                               ; preds = %41, %3
  %46 = load ptr, ptr @nlm_msg_res_unmatched, align 8
  %47 = load ptr, ptr %7, align 8
  %48 = load ptr, ptr %7, align 8
  %49 = call ptr @wmem_map_insert(ptr noundef %46, ptr noundef %47, ptr noundef %48)
  call void @llvm.lifetime.end.p0(i64 8, ptr %8) #8
  call void @llvm.lifetime.end.p0(i64 8, ptr %7) #8
  ret void
}