; Function Attrs: null_pointer_is_valid sspstrong uwtable
define internal fastcc void @nlm_register_unmatched_msg(ptr noundef readonly captures(none) %0, ptr noundef %1) unnamed_addr #0 {
  %3 = tail call ptr @wmem_file_scope()
  %4 = tail call noalias dereferenceable_or_null(40) ptr @wmem_alloc(ptr noundef %3, i64 noundef 40) #11
  %5 = getelementptr inbounds nuw i8, ptr %0, i64 20
  %6 = load i32, ptr %5, align 4
  store i32 %6, ptr %4, align 8
  %7 = getelementptr inbounds nuw i8, ptr %4, i64 8
  %8 = getelementptr inbounds nuw i8, ptr %0, i64 24
  tail call void @llvm.memcpy.p0.p0.i64(ptr noundef nonnull align 8 dereferenceable(16) %7, ptr noundef nonnull align 8 dereferenceable(16) %8, i64 16, i1 false)
  %9 = tail call i32 @tvb_get_ntohl(ptr noundef %1, i32 noundef 0)
  %10 = getelementptr inbounds nuw i8, ptr %4, i64 24
  store i32 %9, ptr %10, align 8
  %11 = tail call ptr @wmem_file_scope()
  %12 = sext i32 %9 to i64
  %13 = tail call ptr @tvb_memdup(ptr noundef %11, ptr noundef %1, i32 noundef 4, i64 noundef %12)
  %14 = getelementptr inbounds nuw i8, ptr %4, i64 32
  store ptr %13, ptr %14, align 8
  %15 = load ptr, ptr @nlm_msg_res_unmatched, align 8
  %16 = tail call ptr @wmem_map_lookup(ptr noundef %15, ptr noundef %4)
  %.not = icmp eq ptr %16, null
  br i1 %.not, label %20, label %17

17:                                               ; preds = %2
  %18 = load ptr, ptr @nlm_msg_res_unmatched, align 8
  %19 = tail call ptr @wmem_map_remove(ptr noundef %18, ptr noundef nonnull %16)
  br label %20

20:                                               ; preds = %17, %2
  %21 = load ptr, ptr @nlm_msg_res_unmatched, align 8
  %22 = tail call ptr @wmem_map_insert(ptr noundef %21, ptr noundef %4, ptr noundef %4)
  ret void
}